target datalayout = "e-m:e-p270:32:32-p271:32:32-p272:64:64-i64:64-i128:128-f80:128-n8:16:32:64-S128"
target triple = "x86_64-pc-linux-gnu"

%"class.icu_77::Hashtable" = type { ptr, %struct.UHashtable }
%struct.UHashtable = type { ptr, ptr, ptr, ptr, ptr, ptr, i32, i32, i32, i32, float, float, i8, i8 }
%"class.icu_77::UVector" = type { %"class.icu_77::UObject", i32, i32, ptr, ptr, ptr }
%"class.icu_77::UObject" = type { ptr }
%"class.icu_77::UnicodeString" = type { %"class.icu_77::Replaceable", %"union.icu_77::UnicodeString::StackBufferOrFields" }
%"class.icu_77::Replaceable" = type { %"class.icu_77::UObject" }
%"union.icu_77::UnicodeString::StackBufferOrFields" = type { %struct.anon.0, [32 x i8] }
%struct.anon.0 = type { i16, i32, i32, ptr }
%struct.anon = type { i16, [27 x i16] }
%"class.icu_77::TransliteratorParser" = type <{ [8 x i8], %"class.icu_77::UVector", %"class.icu_77::UVector", ptr, ptr, i32, %struct.UParseError, [4 x i8], ptr, %"class.icu_77::UVector", %"class.icu_77::Hashtable", %"class.icu_77::UnicodeString", %"class.icu_77::UVector", i16, i16, [4 x i8], %"class.icu_77::UnicodeString", i16, [6 x i8] }>
%struct.UParseError = type { i32, i32, [16 x i16], [16 x i16] }

@_ZTVN6icu_777UObjectE = available_externally unnamed_addr constant { [5 x ptr] } { [5 x ptr] [ptr null, ptr @_ZTIN6icu_777UObjectE, ptr @_ZN6icu_777UObjectD1Ev, ptr @_ZN6icu_777UObjectD0Ev, ptr @_ZNK6icu_777UObject17getDynamicClassIDEv] }, align 8

; Function Attrs: inlinehint mustprogress nounwind uwtable
define linkonce_odr void @_ZN6icu_777UObjectC2Ev(ptr noundef nonnull align 8 dereferenceable(8) %0) unnamed_addr #2 comdat align 2 {
  %2 = alloca ptr, align 8
  store ptr %0, ptr %2, align 8, !tbaa !158
  %3 = load ptr, ptr %2, align 8
  store ptr getelementptr inbounds inrange(-16, 24) ({ [5 x ptr] }, ptr @_ZTVN6icu_777UObjectE, i32 0, i32 0, i32 2), ptr %3, align 8, !tbaa !31
  ret void
}

; Function Attrs: inlinehint mustprogress nounwind uwtable
define internal noundef signext i8 @_ZL9U_SUCCESS10UErrorCode(i32 noundef %0) #2 {
  %2 = alloca i32, align 4
  store i32 %0, ptr %2, align 4, !tbaa !15
  %3 = load i32, ptr %2, align 4, !tbaa !15
  %4 = icmp sle i32 %3, 0
  %5 = zext i1 %4 to i8
  ret i8 %5
}

; Function Attrs: inlinehint mustprogress nounwind uwtable
define internal noundef signext i8 @_ZL9U_FAILURE10UErrorCode(i32 noundef %0) #2 {
  %2 = alloca i32, align 4
  store i32 %0, ptr %2, align 4, !tbaa !15
  %3 = load i32, ptr %2, align 4, !tbaa !15
  %4 = icmp sgt i32 %3, 0
  %5 = zext i1 %4 to i8
  ret i8 %5
}

; Function Attrs: inlinehint mustprogress nounwind uwtable
define linkonce_odr void @_ZN6icu_7711ReplaceableC2Ev(ptr noundef nonnull align 8 dereferenceable(8) %0) unnamed_addr #2 comdat align 2 {
  %2 = alloca ptr, align 8
  store ptr %0, ptr %2, align 8, !tbaa !156
  %3 = load ptr, ptr %2, align 8
  call void @_ZN6icu_777UObjectC2Ev(ptr noundef nonnull align 8 dereferenceable(8) %3) #11
  store ptr getelementptr inbounds inrange(-16, 88) ({ [13 x ptr] }, ptr @_ZTVN6icu_7711ReplaceableE, i32 0, i32 0, i32 2), ptr %3, align 8, !tbaa !31
  ret void
}

; Function Attrs: inlinehint mustprogress uwtable
define linkonce_odr void @_ZN6icu_779Hashtable4initEPFi8UElementEPFaS1_S1_ES5_R10UErrorCode(ptr noundef nonnull align 8 dereferenceable(88) %0, ptr noundef %1, ptr noundef %2, ptr noundef %3, ptr noundef nonnull align 4 dereferenceable(4) %4) #3 comdat align 2 {
  %6 = alloca ptr, align 8
  %7 = alloca ptr, align 8
  %8 = alloca ptr, align 8
  %9 = alloca ptr, align 8
  %10 = alloca ptr, align 8
  store ptr %0, ptr %6, align 8, !tbaa !29
  store ptr %1, ptr %7, align 8, !tbaa !22
  store ptr %2, ptr %8, align 8, !tbaa !22
  store ptr %3, ptr %9, align 8, !tbaa !22
  store ptr %4, ptr %10, align 8, !tbaa !22
  %11 = load ptr, ptr %6, align 8
  %12 = load ptr, ptr %10, align 8, !tbaa !22
  %13 = load i32, ptr %12, align 4, !tbaa !15
  %14 = call noundef signext i8 @_ZL9U_FAILURE10UErrorCode(i32 noundef %13)
  %15 = icmp ne i8 %14, 0
  br i1 %15, label %16, label %17

16:                                               ; preds = %5
  br label %34

17:                                               ; preds = %5
  %18 = getelementptr inbounds nuw %"class.icu_77::Hashtable", ptr %11, i32 0, i32 1
  %19 = load ptr, ptr %7, align 8, !tbaa !22
  %20 = load ptr, ptr %8, align 8, !tbaa !22
  %21 = load ptr, ptr %9, align 8, !tbaa !22
  %22 = load ptr, ptr %10, align 8, !tbaa !22
  %23 = call ptr @uhash_init_77(ptr noundef %18, ptr noundef %19, ptr noundef %20, ptr noundef %21, ptr noundef %22)
  %24 = load ptr, ptr %10, align 8, !tbaa !22
  %25 = load i32, ptr %24, align 4, !tbaa !15
  %26 = call noundef signext i8 @_ZL9U_SUCCESS10UErrorCode(i32 noundef %25)
  %27 = icmp ne i8 %26, 0
  br i1 %27, label %28, label %34

28:                                               ; preds = %17
  %29 = getelementptr inbounds nuw %"class.icu_77::Hashtable", ptr %11, i32 0, i32 1
  %30 = getelementptr inbounds nuw %"class.icu_77::Hashtable", ptr %11, i32 0, i32 0
  store ptr %29, ptr %30, align 8, !tbaa !42
  %31 = getelementptr inbounds nuw %"class.icu_77::Hashtable", ptr %11, i32 0, i32 0
  %32 = load ptr, ptr %31, align 8, !tbaa !42
  %33 = call ptr @uhash_setKeyDeleter_77(ptr noundef %32, ptr noundef @uprv_deleteUObject_77)
  br label %34

34:                                               ; preds = %16, %28, %17
  ret void
}

; Function Attrs: inlinehint mustprogress uwtable
define linkonce_odr noundef ptr @_ZN6icu_779Hashtable15setValueDeleterEPFvPvE(ptr noundef nonnull align 8 dereferenceable(88) %0, ptr noundef %1) #3 comdat align 2 {
  %3 = alloca ptr, align 8
  %4 = alloca ptr, align 8
  store ptr %0, ptr %3, align 8, !tbaa !29
  store ptr %1, ptr %4, align 8, !tbaa !22
  %5 = load ptr, ptr %3, align 8
  %6 = getelementptr inbounds nuw %"class.icu_77::Hashtable", ptr %5, i32 0, i32 0
  %7 = load ptr, ptr %6, align 8, !tbaa !42
  %8 = load ptr, ptr %4, align 8, !tbaa !22
  %9 = call ptr @uhash_setValueDeleter_77(ptr noundef %7, ptr noundef %8)
  ret ptr %9
}

; Function Attrs: inlinehint mustprogress uwtable
define linkonce_odr void @_ZN6icu_7713UnicodeStringC2Ev(ptr noundef nonnull align 8 dereferenceable(64) %0) unnamed_addr #3 comdat align 2 {
  %2 = alloca ptr, align 8
  store ptr %0, ptr %2, align 8, !tbaa !40
  %3 = load ptr, ptr %2, align 8
  call void @_ZN6icu_7711ReplaceableC2Ev(ptr noundef nonnull align 8 dereferenceable(8) %3)
  store ptr getelementptr inbounds inrange(-16, 88) ({ [13 x ptr] }, ptr @_ZTVN6icu_7713UnicodeStringE, i32 0, i32 0, i32 2), ptr %3, align 8, !tbaa !31
  %4 = getelementptr inbounds nuw %"class.icu_77::UnicodeString", ptr %3, i32 0, i32 1
  %5 = getelementptr inbounds nuw %struct.anon, ptr %4, i32 0, i32 0
  store i16 2, ptr %5, align 8, !tbaa !68
  ret void
}

; Function Attrs: inlinehint mustprogress uwtable
define linkonce_odr void @_ZN6icu_779HashtableC2Ev(ptr noundef nonnull align 8 dereferenceable(88) %0) unnamed_addr #3 comdat align 2 {
  %2 = alloca ptr, align 8
  %3 = alloca i32, align 4
  store ptr %0, ptr %2, align 8, !tbaa !29
  %4 = load ptr, ptr %2, align 8
  %5 = getelementptr inbounds nuw %"class.icu_77::Hashtable", ptr %4, i32 0, i32 0
  store ptr null, ptr %5, align 8, !tbaa !42
  call void @llvm.lifetime.start.p0(i64 4, ptr %3) #11
  store i32 0, ptr %3, align 4, !tbaa !15
  call void @_ZN6icu_779Hashtable4initEPFi8UElementEPFaS1_S1_ES5_R10UErrorCode(ptr noundef nonnull align 8 dereferenceable(88) %4, ptr noundef @uhash_hashUnicodeString_77, ptr noundef @uhash_compareUnicodeString_77, ptr noundef null, ptr noundef nonnull align 4 dereferenceable(4) %3)
  call void @llvm.lifetime.end.p0(i64 4, ptr %3) #11
  ret void
}

; Function Attrs: mustprogress uwtable
define void @_ZN6icu_7720TransliteratorParserC2ER10UErrorCode(ptr noundef nonnull align 8 dereferenceable(498) %0, ptr noundef nonnull align 4 dereferenceable(4) %1) unnamed_addr #1 align 2 personality ptr @__gxx_personality_v0 {
  %3 = alloca ptr, align 8
  %4 = alloca ptr, align 8
  %5 = alloca ptr, align 8
  %6 = alloca i32, align 4
  store ptr %0, ptr %3, align 8, !tbaa !71
  store ptr %1, ptr %4, align 8, !tbaa !22
  %7 = load ptr, ptr %3, align 8
  %8 = getelementptr inbounds nuw %"class.icu_77::TransliteratorParser", ptr %7, i32 0, i32 1
  %9 = load ptr, ptr %4, align 8, !tbaa !22
  call void @_ZN6icu_777UVectorC1ER10UErrorCode(ptr noundef nonnull align 8 dereferenceable(40) %8, ptr noundef nonnull align 4 dereferenceable(4) %9)
  %10 = getelementptr inbounds nuw %"class.icu_77::TransliteratorParser", ptr %7, i32 0, i32 2
  %11 = load ptr, ptr %4, align 8, !tbaa !22
  invoke void @_ZN6icu_777UVectorC1ER10UErrorCode(ptr noundef nonnull align 8 dereferenceable(40) %10, ptr noundef nonnull align 4 dereferenceable(4) %11)
          to label %12 unwind label %34

12:                                               ; preds = %2
  %13 = getelementptr inbounds nuw %"class.icu_77::TransliteratorParser", ptr %7, i32 0, i32 9
  %14 = load ptr, ptr %4, align 8, !tbaa !22
  invoke void @_ZN6icu_777UVectorC1ER10UErrorCode(ptr noundef nonnull align 8 dereferenceable(40) %13, ptr noundef nonnull align 4 dereferenceable(4) %14)
          to label %15 unwind label %38

15:                                               ; preds = %12
  %16 = getelementptr inbounds nuw %"class.icu_77::TransliteratorParser", ptr %7, i32 0, i32 10
  invoke void @_ZN6icu_779HashtableC2Ev(ptr noundef nonnull align 8 dereferenceable(88) %16)
          to label %17 unwind label %42

17:                                               ; preds = %15
  %18 = getelementptr inbounds nuw %"class.icu_77::TransliteratorParser", ptr %7, i32 0, i32 11
  invoke void @_ZN6icu_7713UnicodeStringC2Ev(ptr noundef nonnull align 8 dereferenceable(64) %18)
          to label %19 unwind label %46

19:                                               ; preds = %17
  %20 = getelementptr inbounds nuw %"class.icu_77::TransliteratorParser", ptr %7, i32 0, i32 12
  %21 = load ptr, ptr %4, align 8, !tbaa !22
  invoke void @_ZN6icu_777UVectorC1ER10UErrorCode(ptr noundef nonnull align 8 dereferenceable(40) %20, ptr noundef nonnull align 4 dereferenceable(4) %21)
          to label %22 unwind label %50

22:                                               ; preds = %19
  %23 = getelementptr inbounds nuw %"class.icu_77::TransliteratorParser", ptr %7, i32 0, i32 16
  invoke void @_ZN6icu_7713UnicodeStringC2Ev(ptr noundef nonnull align 8 dereferenceable(64) %23)
          to label %24 unwind label %54

24:                                               ; preds = %22
  %25 = getelementptr inbounds nuw %"class.icu_77::TransliteratorParser", ptr %7, i32 0, i32 2
  %26 = invoke noundef ptr @_ZN6icu_777UVector10setDeleterEPFvPvE(ptr noundef nonnull align 8 dereferenceable(40) %25, ptr noundef @uprv_deleteUObject_77)
          to label %27 unwind label %58

27:                                               ; preds = %24
  %28 = getelementptr inbounds nuw %"class.icu_77::TransliteratorParser", ptr %7, i32 0, i32 4
  store ptr null, ptr %28, align 8, !tbaa !88
  %29 = getelementptr inbounds nuw %"class.icu_77::TransliteratorParser", ptr %7, i32 0, i32 3
  store ptr null, ptr %29, align 8, !tbaa !118
  %30 = getelementptr inbounds nuw %"class.icu_77::TransliteratorParser", ptr %7, i32 0, i32 8
  store ptr null, ptr %30, align 8, !tbaa !101
  %31 = getelementptr inbounds nuw %"class.icu_77::TransliteratorParser", ptr %7, i32 0, i32 10
  %32 = invoke noundef ptr @_ZN6icu_779Hashtable15setValueDeleterEPFvPvE(ptr noundef nonnull align 8 dereferenceable(88) %31, ptr noundef @uprv_deleteUObject_77)
          to label %33 unwind label %58

33:                                               ; preds = %27
  ret void

34:                                               ; preds = %2
  %35 = landingpad { ptr, i32 }
          cleanup
  %36 = extractvalue { ptr, i32 } %35, 0
  store ptr %36, ptr %5, align 8
  %37 = extractvalue { ptr, i32 } %35, 1
  store i32 %37, ptr %6, align 4
  br label %67

38:                                               ; preds = %12
  %39 = landingpad { ptr, i32 }
          cleanup
  %40 = extractvalue { ptr, i32 } %39, 0
  store ptr %40, ptr %5, align 8
  %41 = extractvalue { ptr, i32 } %39, 1
  store i32 %41, ptr %6, align 4
  br label %66

42:                                               ; preds = %15
  %43 = landingpad { ptr, i32 }
          cleanup
  %44 = extractvalue { ptr, i32 } %43, 0
  store ptr %44, ptr %5, align 8
  %45 = extractvalue { ptr, i32 } %43, 1
  store i32 %45, ptr %6, align 4
  br label %65

46:                                               ; preds = %17
  %47 = landingpad { ptr, i32 }
          cleanup
  %48 = extractvalue { ptr, i32 } %47, 0
  store ptr %48, ptr %5, align 8
  %49 = extractvalue { ptr, i32 } %47, 1
  store i32 %49, ptr %6, align 4
  br label %64

50:                                               ; preds = %19
  %51 = landingpad { ptr, i32 }
          cleanup
  %52 = extractvalue { ptr, i32 } %51, 0
  store ptr %52, ptr %5, align 8
  %53 = extractvalue { ptr, i32 } %51, 1
  store i32 %53, ptr %6, align 4
  br label %63

54:                                               ; preds = %22
  %55 = landingpad { ptr, i32 }
          cleanup
  %56 = extractvalue { ptr, i32 } %55, 0
  store ptr %56, ptr %5, align 8
  %57 = extractvalue { ptr, i32 } %55, 1
  store i32 %57, ptr %6, align 4
  br label %62

58:                                               ; preds = %27, %24
  %59 = landingpad { ptr, i32 }
          cleanup
  %60 = extractvalue { ptr, i32 } %59, 0
  store ptr %60, ptr %5, align 8
  %61 = extractvalue { ptr, i32 } %59, 1
  store i32 %61, ptr %6, align 4
  call void @_ZN6icu_7713UnicodeStringD1Ev(ptr noundef nonnull align 8 dereferenceable(64) %23) #11
  br label %62

62:                                               ; preds = %58, %54
  call void @_ZN6icu_777UVectorD1Ev(ptr noundef nonnull align 8 dereferenceable(40) %20) #11
  br label %63

63:                                               ; preds = %62, %50
  call void @_ZN6icu_7713UnicodeStringD1Ev(ptr noundef nonnull align 8 dereferenceable(64) %18) #11
  br label %64

64:                                               ; preds = %63, %46
  call void @_ZN6icu_779HashtableD2Ev(ptr noundef nonnull align 8 dereferenceable(88) %16) #11
  br label %65

65:                                               ; preds = %64, %42
  call void @_ZN6icu_777UVectorD1Ev(ptr noundef nonnull align 8 dereferenceable(40) %13) #11
  br label %66

66:                                               ; preds = %65, %38
  call void @_ZN6icu_777UVectorD1Ev(ptr noundef nonnull align 8 dereferenceable(40) %10) #11
  br label %67

67:                                               ; preds = %66, %34
  call void @_ZN6icu_777UVectorD1Ev(ptr noundef nonnull align 8 dereferenceable(40) %8) #11
  br label %68

68:                                               ; preds = %67
  %69 = load ptr, ptr %5, align 8
  %70 = load i32, ptr %6, align 4
  %71 = insertvalue { ptr, i32 } poison, ptr %69, 0
  %72 = insertvalue { ptr, i32 } %71, i32 %70, 1
  resume { ptr, i32 } %72
}