; Function Attrs: mustprogress uwtable
define void @_ZN6icu_7720TransliteratorParserC2ER10UErrorCode(ptr noundef nonnull align 8 dereferenceable(498) %0, ptr noundef nonnull align 4 dereferenceable(4) %1) unnamed_addr #1 align 2 personality ptr @__gxx_personality_v0 {
  %3 = alloca i32, align 4
  %4 = getelementptr inbounds nuw i8, ptr %0, i64 8
  tail call void @_ZN6icu_777UVectorC1ER10UErrorCode(ptr noundef nonnull align 8 dereferenceable(40) %4, ptr noundef nonnull align 4 dereferenceable(4) %1)
  %5 = getelementptr inbounds nuw i8, ptr %0, i64 48
  invoke void @_ZN6icu_777UVectorC1ER10UErrorCode(ptr noundef nonnull align 8 dereferenceable(40) %5, ptr noundef nonnull align 4 dereferenceable(4) %1)
          to label %6 unwind label %29

6:                                                ; preds = %2
  %7 = getelementptr inbounds nuw i8, ptr %0, i64 192
  invoke void @_ZN6icu_777UVectorC1ER10UErrorCode(ptr noundef nonnull align 8 dereferenceable(40) %7, ptr noundef nonnull align 4 dereferenceable(4) %1)
          to label %8 unwind label %31

8:                                                ; preds = %6
  %9 = getelementptr inbounds nuw i8, ptr %0, i64 232
  store ptr null, ptr %9, align 8, !tbaa !25
  call void @llvm.lifetime.start.p0(i64 4, ptr nonnull %3) #18
  store i32 0, ptr %3, align 4, !tbaa !13
  %10 = getelementptr inbounds nuw i8, ptr %0, i64 240
  %11 = invoke ptr @uhash_init_77(ptr noundef nonnull %10, ptr noundef nonnull @uhash_hashUnicodeString_77, ptr noundef nonnull @uhash_compareUnicodeString_77, ptr noundef null, ptr noundef nonnull align 4 dereferenceable(4) %3)
          to label %.noexc unwind label %33

.noexc:                                           ; preds = %8
  %12 = load i32, ptr %3, align 4, !tbaa !13
  %13 = icmp sgt i32 %12, 0
  br i1 %13, label %16, label %14

14:                                               ; preds = %.noexc
  store ptr %10, ptr %9, align 8, !tbaa !25
  %15 = invoke ptr @uhash_setKeyDeleter_77(ptr noundef nonnull %10, ptr noundef nonnull @uprv_deleteUObject_77)
          to label %16 unwind label %33

16:                                               ; preds = %14, %.noexc
  call void @llvm.lifetime.end.p0(i64 4, ptr nonnull %3) #18
  %17 = getelementptr inbounds nuw i8, ptr %0, i64 320
  store ptr getelementptr inbounds nuw inrange(-16, 88) (i8, ptr @_ZTVN6icu_7713UnicodeStringE, i64 16), ptr %17, align 8, !tbaa !15
  %18 = getelementptr inbounds nuw i8, ptr %0, i64 328
  store i16 2, ptr %18, align 8, !tbaa !44
  %19 = getelementptr inbounds nuw i8, ptr %0, i64 384
  invoke void @_ZN6icu_777UVectorC1ER10UErrorCode(ptr noundef nonnull align 8 dereferenceable(40) %19, ptr noundef nonnull align 4 dereferenceable(4) %1)
          to label %20 unwind label %35

20:                                               ; preds = %16
  %21 = getelementptr inbounds nuw i8, ptr %0, i64 432
  store ptr getelementptr inbounds nuw inrange(-16, 88) (i8, ptr @_ZTVN6icu_7713UnicodeStringE, i64 16), ptr %21, align 8, !tbaa !15
  %22 = getelementptr inbounds nuw i8, ptr %0, i64 440
  store i16 2, ptr %22, align 8, !tbaa !44
  %23 = invoke noundef ptr @_ZN6icu_777UVector10setDeleterEPFvPvE(ptr noundef nonnull align 8 dereferenceable(40) %5, ptr noundef nonnull @uprv_deleteUObject_77)
          to label %24 unwind label %37

24:                                               ; preds = %20
  %25 = getelementptr inbounds nuw i8, ptr %0, i64 88
  %26 = getelementptr inbounds nuw i8, ptr %0, i64 184
  store ptr null, ptr %26, align 8, !tbaa !74
  call void @llvm.memset.p0.i64(ptr noundef nonnull align 8 dereferenceable(16) %25, i8 0, i64 16, i1 false)
  %27 = load ptr, ptr %9, align 8, !tbaa !25
  %28 = invoke noundef ptr @uhash_setValueDeleter_77(ptr noundef %27, ptr noundef nonnull @uprv_deleteUObject_77)
          to label %_ZN6icu_779Hashtable15setValueDeleterEPFvPvE.exit unwind label %37

_ZN6icu_779Hashtable15setValueDeleterEPFvPvE.exit: ; preds = %24
  ret void

29:                                               ; preds = %2
  %30 = landingpad { ptr, i32 }
          cleanup
  br label %42

31:                                               ; preds = %6
  %32 = landingpad { ptr, i32 }
          cleanup
  br label %41

33:                                               ; preds = %14, %8
  %34 = landingpad { ptr, i32 }
          cleanup
  br label %40

35:                                               ; preds = %16
  %36 = landingpad { ptr, i32 }
          cleanup
  br label %39

37:                                               ; preds = %24, %20
  %38 = landingpad { ptr, i32 }
          cleanup
  call void @_ZN6icu_7713UnicodeStringD1Ev(ptr noundef nonnull align 8 dereferenceable(64) %21) #18
  call void @_ZN6icu_777UVectorD1Ev(ptr noundef nonnull align 8 dereferenceable(40) %19) #18
  br label %39

39:                                               ; preds = %37, %35
  %.pn.pn = phi { ptr, i32 } [ %38, %37 ], [ %36, %35 ]
  call void @_ZN6icu_7713UnicodeStringD1Ev(ptr noundef nonnull align 8 dereferenceable(64) %17) #18
  call void @_ZN6icu_779HashtableD2Ev(ptr noundef nonnull align 8 dereferenceable(88) %9) #18
  br label %40

40:                                               ; preds = %39, %33
  %.pn.pn.pn.pn = phi { ptr, i32 } [ %.pn.pn, %39 ], [ %34, %33 ]
  call void @_ZN6icu_777UVectorD1Ev(ptr noundef nonnull align 8 dereferenceable(40) %7) #18
  br label %41

41:                                               ; preds = %40, %31
  %.pn.pn.pn.pn.pn = phi { ptr, i32 } [ %.pn.pn.pn.pn, %40 ], [ %32, %31 ]
  call void @_ZN6icu_777UVectorD1Ev(ptr noundef nonnull align 8 dereferenceable(40) %5) #18
  br label %42

42:                                               ; preds = %41, %29
  %.pn.pn.pn.pn.pn.pn = phi { ptr, i32 } [ %.pn.pn.pn.pn.pn, %41 ], [ %30, %29 ]
  call void @_ZN6icu_777UVectorD1Ev(ptr noundef nonnull align 8 dereferenceable(40) %4) #18
  resume { ptr, i32 } %.pn.pn.pn.pn.pn.pn
}